; Function Attrs: nounwind uwtable
define hidden void @zim_ArrayObject_setFlags(ptr nocapture noundef readonly %0, ptr nocapture readnone %1) #0 {
  %3 = alloca i64, align 8
  %4 = getelementptr inbounds i8, ptr %0, i64 32
  %5 = load ptr, ptr %4, align 8
  store i64 0, ptr %3, align 8
  %6 = getelementptr inbounds i8, ptr %0, i64 44
  %7 = load i32, ptr %6, align 4
  %8 = call i32 (i32, ptr, ...) @zend_parse_parameters(i32 noundef %7, ptr noundef nonnull @.str.4, ptr noundef nonnull %3) #11
  %9 = icmp eq i32 %8, -1
  br i1 %9, label %10, label %13

10:                                               ; preds = %2
  %11 = load ptr, ptr getelementptr inbounds (%struct._zend_executor_globals, ptr @executor_globals, i64 0, i32 50), align 8
  %12 = icmp ne ptr %11, null
  call void @llvm.assume(i1 %12)
  br label %21

13:                                               ; preds = %2
  %14 = getelementptr inbounds i8, ptr %5, i64 -68
  %15 = load i32, ptr %14, align 4
  %16 = and i32 %15, -65536
  %17 = load i64, ptr %3, align 8
  %18 = trunc i64 %17 to i32
  %19 = and i32 %18, 65535
  %20 = or disjoint i32 %19, %16
  store i32 %20, ptr %14, align 4
  br label %21

21:                                               ; preds = %13, %10
  ret void
}